target datalayout = "e-m:e-p270:32:32-p271:32:32-p272:64:64-i64:64-i128:128-f80:128-n8:16:32:64-S128"
target triple = "x86_64-pc-linux-gnu"

; Function Attrs: nounwind uwtable
define hidden i32 @dom_check_qname(ptr noundef %0, ptr noundef %1, ptr noundef %2, i32 noundef %3, i32 noundef %4) #0 {
  %6 = alloca i32, align 4
  %7 = alloca ptr, align 8
  %8 = alloca ptr, align 8
  %9 = alloca ptr, align 8
  %10 = alloca i32, align 4
  %11 = alloca i32, align 4
  store ptr %0, ptr %7, align 8
  store ptr %1, ptr %8, align 8
  store ptr %2, ptr %9, align 8
  store i32 %3, ptr %10, align 4
  store i32 %4, ptr %11, align 4
  %12 = load i32, ptr %11, align 4
  %13 = icmp eq i32 %12, 0
  br i1 %13, label %14, label %15

14:                                               ; preds = %5
  store i32 14, ptr %6, align 4
  br label %49

15:                                               ; preds = %5
  %16 = load ptr, ptr %7, align 8
  %17 = load ptr, ptr %9, align 8
  %18 = call ptr @xmlSplitQName2(ptr noundef %16, ptr noundef %17)
  %19 = load ptr, ptr %8, align 8
  store ptr %18, ptr %19, align 8
  %20 = load ptr, ptr %8, align 8
  %21 = load ptr, ptr %20, align 8
  %22 = icmp eq ptr %21, null
  br i1 %22, label %23, label %35

23:                                               ; preds = %15
  %24 = load ptr, ptr %7, align 8
  %25 = call ptr @xmlStrdup(ptr noundef %24)
  %26 = load ptr, ptr %8, align 8
  store ptr %25, ptr %26, align 8
  %27 = load ptr, ptr %9, align 8
  %28 = load ptr, ptr %27, align 8
  %29 = icmp eq ptr %28, null
  br i1 %29, label %30, label %34

30:                                               ; preds = %23
  %31 = load i32, ptr %10, align 4
  %32 = icmp eq i32 %31, 0
  br i1 %32, label %33, label %34

33:                                               ; preds = %30
  store i32 0, ptr %6, align 4
  br label %49

34:                                               ; preds = %30, %23
  br label %35

35:                                               ; preds = %34, %15
  %36 = load ptr, ptr %7, align 8
  %37 = call i32 @xmlValidateQName(ptr noundef %36, i32 noundef 0)
  %38 = icmp ne i32 %37, 0
  br i1 %38, label %39, label %40

39:                                               ; preds = %35
  store i32 14, ptr %6, align 4
  br label %49

40:                                               ; preds = %35
  %41 = load ptr, ptr %9, align 8
  %42 = load ptr, ptr %41, align 8
  %43 = icmp ne ptr %42, null
  br i1 %43, label %44, label %48

44:                                               ; preds = %40
  %45 = load i32, ptr %10, align 4
  %46 = icmp eq i32 %45, 0
  br i1 %46, label %47, label %48

47:                                               ; preds = %44
  store i32 14, ptr %6, align 4
  br label %49

48:                                               ; preds = %44, %40
  store i32 0, ptr %6, align 4
  br label %49

49:                                               ; preds = %48, %47, %39, %33, %14
  %50 = load i32, ptr %6, align 4
  ret i32 %50
}