; Function Attrs: nounwind uwtable
define hidden i32 @dom_check_qname(ptr noundef %0, ptr nocapture noundef writeonly %1, ptr noundef %2, i32 noundef %3, i32 noundef %4) local_unnamed_addr #1 {
  %6 = icmp eq i32 %4, 0
  br i1 %6, label %21, label %7

7:                                                ; preds = %5
  %8 = tail call ptr @xmlSplitQName2(ptr noundef %0, ptr noundef %2) #16
  store ptr %8, ptr %1, align 8
  %9 = icmp eq ptr %8, null
  br i1 %9, label %10, label %15

10:                                               ; preds = %7
  %11 = tail call ptr @xmlStrdup(ptr noundef %0) #16
  store ptr %11, ptr %1, align 8
  %12 = load ptr, ptr %2, align 8
  %13 = icmp eq ptr %12, null
  %14 = icmp eq i32 %3, 0
  %or.cond = and i1 %14, %13
  br i1 %or.cond, label %21, label %15

15:                                               ; preds = %10, %7
  %16 = tail call i32 @xmlValidateQName(ptr noundef %0, i32 noundef 0) #16
  %.not = icmp eq i32 %16, 0
  br i1 %.not, label %17, label %21

17:                                               ; preds = %15
  %18 = load ptr, ptr %2, align 8
  %19 = icmp ne ptr %18, null
  %20 = icmp eq i32 %3, 0
  %or.cond3 = and i1 %20, %19
  %. = select i1 %or.cond3, i32 14, i32 0
  br label %21

21:                                               ; preds = %17, %15, %10, %5
  %.0 = phi i32 [ 14, %5 ], [ 0, %10 ], [ 14, %15 ], [ %., %17 ]
  ret i32 %.0
}